target datalayout = "e-m:e-p270:32:32-p271:32:32-p272:64:64-i64:64-i128:128-f80:128-n8:16:32:64-S128"
target triple = "x86_64-pc-linux-gnu"

%struct._Node = type { %union.anon.35 }
%union.anon.35 = type { %struct.BagNode }
%struct.BagNode = type { i32, i32, ptr, ptr, i32, %union.anon.37, i32, i32, i32, i32, i32 }
%union.anon.37 = type { %struct.anon.40 }
%struct.anon.40 = type { ptr, ptr }
%struct.anon.36 = type { i32, i32, ptr, ptr }
%struct.ConsAltNode = type { i32, i32, ptr, ptr, ptr }
%struct.StrNode = type { i32, i32, ptr, ptr, ptr, i32, [24 x i8], i32 }
%struct.AnchorNode = type { i32, i32, ptr, ptr, i32, i32, i32, i32, ptr }

; Function Attrs: nounwind uwtable
define internal void @node_swap(ptr noundef %0, ptr noundef %1) #0 {
  %3 = alloca ptr, align 8
  %4 = alloca ptr, align 8
  %5 = alloca %struct._Node, align 8
  %6 = alloca ptr, align 8
  %7 = alloca i32, align 4
  %8 = alloca ptr, align 8
  %9 = alloca i32, align 4
  store ptr %0, ptr %3, align 8, !tbaa !47
  store ptr %1, ptr %4, align 8, !tbaa !47
  call void @llvm.lifetime.start.p0(i64 72, ptr %5) #9
  %10 = load ptr, ptr %3, align 8, !tbaa !47
  call void @llvm.memcpy.p0.p0.i64(ptr align 8 %5, ptr align 8 %10, i64 72, i1 false), !tbaa.struct !237
  %11 = load ptr, ptr %3, align 8, !tbaa !47
  %12 = load ptr, ptr %4, align 8, !tbaa !47
  call void @llvm.memcpy.p0.p0.i64(ptr align 8 %11, ptr align 8 %12, i64 72, i1 false), !tbaa.struct !237
  %13 = load ptr, ptr %4, align 8, !tbaa !47
  call void @llvm.memcpy.p0.p0.i64(ptr align 8 %13, ptr align 8 %5, i64 72, i1 false), !tbaa.struct !237
  %14 = load ptr, ptr %3, align 8, !tbaa !47
  %15 = getelementptr inbounds nuw %struct._Node, ptr %14, i32 0, i32 0
  %16 = getelementptr inbounds nuw %struct.anon.36, ptr %15, i32 0, i32 0
  %17 = load i32, ptr %16, align 8, !tbaa !32
  %18 = icmp eq i32 %17, 0
  br i1 %18, label %19, label %51

19:                                               ; preds = %2
  call void @llvm.lifetime.start.p0(i64 8, ptr %6) #9
  %20 = load ptr, ptr %3, align 8, !tbaa !47
  %21 = getelementptr inbounds nuw %struct._Node, ptr %20, i32 0, i32 0
  store ptr %21, ptr %6, align 8, !tbaa !15
  %22 = load ptr, ptr %6, align 8, !tbaa !15
  %23 = getelementptr inbounds nuw %struct.StrNode, ptr %22, i32 0, i32 7
  %24 = load i32, ptr %23, align 4, !tbaa !238
  %25 = icmp eq i32 %24, 0
  br i1 %25, label %26, label %50

26:                                               ; preds = %19
  call void @llvm.lifetime.start.p0(i64 4, ptr %7) #9
  %27 = load ptr, ptr %6, align 8, !tbaa !15
  %28 = getelementptr inbounds nuw %struct.StrNode, ptr %27, i32 0, i32 4
  %29 = load ptr, ptr %28, align 8, !tbaa !165
  %30 = load ptr, ptr %6, align 8, !tbaa !15
  %31 = getelementptr inbounds nuw %struct.StrNode, ptr %30, i32 0, i32 3
  %32 = load ptr, ptr %31, align 8, !tbaa !163
  %33 = ptrtoint ptr %29 to i64
  %34 = ptrtoint ptr %32 to i64
  %35 = sub i64 %33, %34
  %36 = trunc i64 %35 to i32
  store i32 %36, ptr %7, align 4, !tbaa !4
  %37 = load ptr, ptr %6, align 8, !tbaa !15
  %38 = getelementptr inbounds nuw %struct.StrNode, ptr %37, i32 0, i32 6
  %39 = getelementptr inbounds [24 x i8], ptr %38, i64 0, i64 0
  %40 = load ptr, ptr %6, align 8, !tbaa !15
  %41 = getelementptr inbounds nuw %struct.StrNode, ptr %40, i32 0, i32 3
  store ptr %39, ptr %41, align 8, !tbaa !163
  %42 = load ptr, ptr %6, align 8, !tbaa !15
  %43 = getelementptr inbounds nuw %struct.StrNode, ptr %42, i32 0, i32 3
  %44 = load ptr, ptr %43, align 8, !tbaa !163
  %45 = load i32, ptr %7, align 4, !tbaa !4
  %46 = sext i32 %45 to i64
  %47 = getelementptr inbounds i8, ptr %44, i64 %46
  %48 = load ptr, ptr %6, align 8, !tbaa !15
  %49 = getelementptr inbounds nuw %struct.StrNode, ptr %48, i32 0, i32 4
  store ptr %47, ptr %49, align 8, !tbaa !165
  call void @llvm.lifetime.end.p0(i64 4, ptr %7) #9
  br label %50

50:                                               ; preds = %26, %19
  call void @llvm.lifetime.end.p0(i64 8, ptr %6) #9
  br label %51

51:                                               ; preds = %50, %2
  %52 = load ptr, ptr %4, align 8, !tbaa !47
  %53 = getelementptr inbounds nuw %struct._Node, ptr %52, i32 0, i32 0
  %54 = getelementptr inbounds nuw %struct.anon.36, ptr %53, i32 0, i32 0
  %55 = load i32, ptr %54, align 8, !tbaa !32
  %56 = icmp eq i32 %55, 0
  br i1 %56, label %57, label %89

57:                                               ; preds = %51
  call void @llvm.lifetime.start.p0(i64 8, ptr %8) #9
  %58 = load ptr, ptr %4, align 8, !tbaa !47
  %59 = getelementptr inbounds nuw %struct._Node, ptr %58, i32 0, i32 0
  store ptr %59, ptr %8, align 8, !tbaa !15
  %60 = load ptr, ptr %8, align 8, !tbaa !15
  %61 = getelementptr inbounds nuw %struct.StrNode, ptr %60, i32 0, i32 7
  %62 = load i32, ptr %61, align 4, !tbaa !238
  %63 = icmp eq i32 %62, 0
  br i1 %63, label %64, label %88

64:                                               ; preds = %57
  call void @llvm.lifetime.start.p0(i64 4, ptr %9) #9
  %65 = load ptr, ptr %8, align 8, !tbaa !15
  %66 = getelementptr inbounds nuw %struct.StrNode, ptr %65, i32 0, i32 4
  %67 = load ptr, ptr %66, align 8, !tbaa !165
  %68 = load ptr, ptr %8, align 8, !tbaa !15
  %69 = getelementptr inbounds nuw %struct.StrNode, ptr %68, i32 0, i32 3
  %70 = load ptr, ptr %69, align 8, !tbaa !163
  %71 = ptrtoint ptr %67 to i64
  %72 = ptrtoint ptr %70 to i64
  %73 = sub i64 %71, %72
  %74 = trunc i64 %73 to i32
  store i32 %74, ptr %9, align 4, !tbaa !4
  %75 = load ptr, ptr %8, align 8, !tbaa !15
  %76 = getelementptr inbounds nuw %struct.StrNode, ptr %75, i32 0, i32 6
  %77 = getelementptr inbounds [24 x i8], ptr %76, i64 0, i64 0
  %78 = load ptr, ptr %8, align 8, !tbaa !15
  %79 = getelementptr inbounds nuw %struct.StrNode, ptr %78, i32 0, i32 3
  store ptr %77, ptr %79, align 8, !tbaa !163
  %80 = load ptr, ptr %8, align 8, !tbaa !15
  %81 = getelementptr inbounds nuw %struct.StrNode, ptr %80, i32 0, i32 3
  %82 = load ptr, ptr %81, align 8, !tbaa !163
  %83 = load i32, ptr %9, align 4, !tbaa !4
  %84 = sext i32 %83 to i64
  %85 = getelementptr inbounds i8, ptr %82, i64 %84
  %86 = load ptr, ptr %8, align 8, !tbaa !15
  %87 = getelementptr inbounds nuw %struct.StrNode, ptr %86, i32 0, i32 4
  store ptr %85, ptr %87, align 8, !tbaa !165
  call void @llvm.lifetime.end.p0(i64 4, ptr %9) #9
  br label %88

88:                                               ; preds = %64, %57
  call void @llvm.lifetime.end.p0(i64 8, ptr %8) #9
  br label %89

89:                                               ; preds = %88, %51
  call void @llvm.lifetime.end.p0(i64 72, ptr %5) #9
  ret void
}

; Function Attrs: nounwind uwtable
define internal i32 @divide_look_behind_alternatives(ptr noundef %0) #0 {
  %2 = alloca i32, align 4
  %3 = alloca ptr, align 8
  %4 = alloca i32, align 4
  %5 = alloca i32, align 4
  %6 = alloca ptr, align 8
  %7 = alloca ptr, align 8
  %8 = alloca ptr, align 8
  %9 = alloca ptr, align 8
  %10 = alloca i32, align 4
  store ptr %0, ptr %3, align 8, !tbaa !47
  call void @llvm.lifetime.start.p0(i64 4, ptr %4) #9
  call void @llvm.lifetime.start.p0(i64 4, ptr %5) #9
  call void @llvm.lifetime.start.p0(i64 8, ptr %6) #9
  call void @llvm.lifetime.start.p0(i64 8, ptr %7) #9
  call void @llvm.lifetime.start.p0(i64 8, ptr %8) #9
  call void @llvm.lifetime.start.p0(i64 8, ptr %9) #9
  %11 = load ptr, ptr %3, align 8, !tbaa !47
  %12 = getelementptr inbounds nuw %struct._Node, ptr %11, i32 0, i32 0
  store ptr %12, ptr %9, align 8, !tbaa !15
  %13 = load ptr, ptr %9, align 8, !tbaa !15
  %14 = getelementptr inbounds nuw %struct.AnchorNode, ptr %13, i32 0, i32 4
  %15 = load i32, ptr %14, align 8, !tbaa !184
  store i32 %15, ptr %5, align 4, !tbaa !4
  %16 = load ptr, ptr %9, align 8, !tbaa !15
  %17 = getelementptr inbounds nuw %struct.AnchorNode, ptr %16, i32 0, i32 3
  %18 = load ptr, ptr %17, align 8, !tbaa !186
  store ptr %18, ptr %6, align 8, !tbaa !47
  %19 = load ptr, ptr %6, align 8, !tbaa !47
  %20 = getelementptr inbounds nuw %struct._Node, ptr %19, i32 0, i32 0
  %21 = getelementptr inbounds nuw %struct.ConsAltNode, ptr %20, i32 0, i32 3
  %22 = load ptr, ptr %21, align 8, !tbaa !32
  store ptr %22, ptr %7, align 8, !tbaa !47
  %23 = load ptr, ptr %3, align 8, !tbaa !47
  %24 = load ptr, ptr %6, align 8, !tbaa !47
  call void @node_swap(ptr noundef %23, ptr noundef %24)
  %25 = load ptr, ptr %6, align 8, !tbaa !47
  %26 = load ptr, ptr %3, align 8, !tbaa !47
  %27 = getelementptr inbounds nuw %struct._Node, ptr %26, i32 0, i32 0
  %28 = getelementptr inbounds nuw %struct.ConsAltNode, ptr %27, i32 0, i32 3
  store ptr %25, ptr %28, align 8, !tbaa !32
  %29 = load ptr, ptr %7, align 8, !tbaa !47
  %30 = load ptr, ptr %6, align 8, !tbaa !47
  %31 = getelementptr inbounds nuw %struct._Node, ptr %30, i32 0, i32 0
  %32 = getelementptr inbounds nuw %struct.anon.36, ptr %31, i32 0, i32 3
  store ptr %29, ptr %32, align 8, !tbaa !32
  %33 = load ptr, ptr %3, align 8, !tbaa !47
  store ptr %33, ptr %7, align 8, !tbaa !47
  br label %34

34:                                               ; preds = %51, %1
  %35 = load ptr, ptr %7, align 8, !tbaa !47
  %36 = getelementptr inbounds nuw %struct._Node, ptr %35, i32 0, i32 0
  %37 = getelementptr inbounds nuw %struct.ConsAltNode, ptr %36, i32 0, i32 4
  %38 = load ptr, ptr %37, align 8, !tbaa !32
  store ptr %38, ptr %7, align 8, !tbaa !47
  %39 = icmp ne ptr %38, null
  br i1 %39, label %40, label %63

40:                                               ; preds = %34
  %41 = load ptr, ptr %6, align 8, !tbaa !47
  %42 = call i32 @onig_node_copy(ptr noundef %8, ptr noundef %41)
  store i32 %42, ptr %4, align 4, !tbaa !4
  %43 = load i32, ptr %4, align 4, !tbaa !4
  %44 = icmp ne i32 %43, 0
  br i1 %44, label %45, label %47

45:                                               ; preds = %40
  %46 = load i32, ptr %4, align 4, !tbaa !4
  store i32 %46, ptr %2, align 4
  store i32 1, ptr %10, align 4
  br label %80

47:                                               ; preds = %40
  %48 = load ptr, ptr %8, align 8, !tbaa !47
  %49 = icmp eq ptr %48, null
  br i1 %49, label %50, label %51

50:                                               ; preds = %47
  store i32 -5, ptr %2, align 4
  store i32 1, ptr %10, align 4
  br label %80

51:                                               ; preds = %47
  %52 = load ptr, ptr %7, align 8, !tbaa !47
  %53 = getelementptr inbounds nuw %struct._Node, ptr %52, i32 0, i32 0
  %54 = getelementptr inbounds nuw %struct.ConsAltNode, ptr %53, i32 0, i32 3
  %55 = load ptr, ptr %54, align 8, !tbaa !32
  %56 = load ptr, ptr %8, align 8, !tbaa !47
  %57 = getelementptr inbounds nuw %struct._Node, ptr %56, i32 0, i32 0
  %58 = getelementptr inbounds nuw %struct.anon.36, ptr %57, i32 0, i32 3
  store ptr %55, ptr %58, align 8, !tbaa !32
  %59 = load ptr, ptr %8, align 8, !tbaa !47
  %60 = load ptr, ptr %7, align 8, !tbaa !47
  %61 = getelementptr inbounds nuw %struct._Node, ptr %60, i32 0, i32 0
  %62 = getelementptr inbounds nuw %struct.ConsAltNode, ptr %61, i32 0, i32 3
  store ptr %59, ptr %62, align 8, !tbaa !32
  br label %34, !llvm.loop !260

63:                                               ; preds = %34
  %64 = load i32, ptr %5, align 4, !tbaa !4
  %65 = icmp eq i32 %64, 8
  br i1 %65, label %66, label %79

66:                                               ; preds = %63
  %67 = load ptr, ptr %3, align 8, !tbaa !47
  store ptr %67, ptr %7, align 8, !tbaa !47
  br label %68

68:                                               ; preds = %72, %66
  %69 = load ptr, ptr %7, align 8, !tbaa !47
  %70 = getelementptr inbounds nuw %struct._Node, ptr %69, i32 0, i32 0
  %71 = getelementptr inbounds nuw %struct.anon.36, ptr %70, i32 0, i32 0
  store i32 7, ptr %71, align 8, !tbaa !32
  br label %72

72:                                               ; preds = %68
  %73 = load ptr, ptr %7, align 8, !tbaa !47
  %74 = getelementptr inbounds nuw %struct._Node, ptr %73, i32 0, i32 0
  %75 = getelementptr inbounds nuw %struct.ConsAltNode, ptr %74, i32 0, i32 4
  %76 = load ptr, ptr %75, align 8, !tbaa !32
  store ptr %76, ptr %7, align 8, !tbaa !47
  %77 = icmp ne ptr %76, null
  br i1 %77, label %68, label %78, !llvm.loop !261

78:                                               ; preds = %72
  br label %79

79:                                               ; preds = %78, %63
  store i32 0, ptr %2, align 4
  store i32 1, ptr %10, align 4
  br label %80

80:                                               ; preds = %79, %50, %45
  call void @llvm.lifetime.end.p0(i64 8, ptr %9) #9
  call void @llvm.lifetime.end.p0(i64 8, ptr %8) #9
  call void @llvm.lifetime.end.p0(i64 8, ptr %7) #9
  call void @llvm.lifetime.end.p0(i64 8, ptr %6) #9
  call void @llvm.lifetime.end.p0(i64 4, ptr %5) #9
  call void @llvm.lifetime.end.p0(i64 4, ptr %4) #9
  %81 = load i32, ptr %2, align 4
  ret i32 %81
}